; ModuleID = '13/1345.c'
source_filename = "13/1345.c"
target datalayout = "e-m:e-p270:32:32-p271:32:32-p272:64:64-i64:64-f80:128-n8:16:32:64-S128"
target triple = "x86_64-pc-linux-gnu"

@.str = private unnamed_addr constant [3 x i8] c"%d\00", align 1
@.str.1 = private unnamed_addr constant [4 x i8] c"%d \00", align 1

; Function Attrs: noinline nounwind uwtable
define dso_local i32 @main() #0 {
  %1 = alloca i32, align 4
  %2 = alloca i32, align 4
  %3 = alloca i32, align 4
  %4 = alloca i32, align 4
  %5 = alloca [30000 x i32], align 16
  %6 = alloca [30000 x i32], align 16
  %7 = alloca [101 x i32], align 16
  store i32 0, i32* %1, align 4
  %8 = call i32 (i8*, ...) @__isoc99_scanf(i8* getelementptr inbounds ([3 x i8], [3 x i8]* @.str, i64 0, i64 0), i32* %2)
  store i32 10, i32* %3, align 4
  br label %9

9:                                                ; preds = %16, %0
  %10 = load i32, i32* %3, align 4
  %11 = icmp sle i32 %10, 100
  br i1 %11, label %12, label %19

12:                                               ; preds = %9
  %13 = load i32, i32* %3, align 4
  %14 = sext i32 %13 to i64
  %15 = getelementptr inbounds [101 x i32], [101 x i32]* %7, i64 0, i64 %14
  store i32 1, i32* %15, align 4
  br label %16

16:                                               ; preds = %12
  %17 = load i32, i32* %3, align 4
  %18 = add nsw i32 %17, 1
  store i32 %18, i32* %3, align 4
  br label %9

19:                                               ; preds = %9
  store i32 1, i32* %3, align 4
  br label %20

20:                                               ; preds = %29, %19
  %21 = load i32, i32* %3, align 4
  %22 = load i32, i32* %2, align 4
  %23 = icmp sle i32 %21, %22
  br i1 %23, label %24, label %32

24:                                               ; preds = %20
  %25 = load i32, i32* %3, align 4
  %26 = sext i32 %25 to i64
  %27 = getelementptr inbounds [30000 x i32], [30000 x i32]* %5, i64 0, i64 %26
  %28 = call i32 (i8*, ...) @__isoc99_scanf(i8* getelementptr inbounds ([3 x i8], [3 x i8]* @.str, i64 0, i64 0), i32* %27)
  br label %29

29:                                               ; preds = %24
  %30 = load i32, i32* %3, align 4
  %31 = add nsw i32 %30, 1
  store i32 %31, i32* %3, align 4
  br label %20

32:                                               ; preds = %20
  store i32 1, i32* %4, align 4
  store i32 1, i32* %3, align 4
  br label %33

33:                                               ; preds = %63, %32
  %34 = load i32, i32* %3, align 4
  %35 = load i32, i32* %2, align 4
  %36 = icmp sle i32 %34, %35
  br i1 %36, label %37, label %66

37:                                               ; preds = %33
  %38 = load i32, i32* %3, align 4
  %39 = sext i32 %38 to i64
  %40 = getelementptr inbounds [30000 x i32], [30000 x i32]* %5, i64 0, i64 %39
  %41 = load i32, i32* %40, align 4
  %42 = sext i32 %41 to i64
  %43 = getelementptr inbounds [101 x i32], [101 x i32]* %7, i64 0, i64 %42
  %44 = load i32, i32* %43, align 4
  %45 = icmp eq i32 %44, 1
  br i1 %45, label %46, label %62

46:                                               ; preds = %37
  %47 = load i32, i32* %3, align 4
  %48 = sext i32 %47 to i64
  %49 = getelementptr inbounds [30000 x i32], [30000 x i32]* %5, i64 0, i64 %48
  %50 = load i32, i32* %49, align 4
  %51 = load i32, i32* %4, align 4
  %52 = sext i32 %51 to i64
  %53 = getelementptr inbounds [30000 x i32], [30000 x i32]* %6, i64 0, i64 %52
  store i32 %50, i32* %53, align 4
  %54 = load i32, i32* %4, align 4
  %55 = add nsw i32 %54, 1
  store i32 %55, i32* %4, align 4
  %56 = load i32, i32* %3, align 4
  %57 = sext i32 %56 to i64
  %58 = getelementptr inbounds [30000 x i32], [30000 x i32]* %5, i64 0, i64 %57
  %59 = load i32, i32* %58, align 4
  %60 = sext i32 %59 to i64
  %61 = getelementptr inbounds [101 x i32], [101 x i32]* %7, i64 0, i64 %60
  store i32 0, i32* %61, align 4
  br label %62

62:                                               ; preds = %46, %37
  br label %63

63:                                               ; preds = %62
  %64 = load i32, i32* %3, align 4
  %65 = add nsw i32 %64, 1
  store i32 %65, i32* %3, align 4
  br label %33

66:                                               ; preds = %33
  store i32 1, i32* %3, align 4
  br label %67

67:                                               ; preds = %90, %66
  %68 = load i32, i32* %3, align 4
  %69 = load i32, i32* %4, align 4
  %70 = sub nsw i32 %69, 1
  %71 = icmp sle i32 %68, %70
  br i1 %71, label %72, label %93

72:                                               ; preds = %67
  %73 = load i32, i32* %3, align 4
  %74 = load i32, i32* %4, align 4
  %75 = sub nsw i32 %74, 1
  %76 = icmp slt i32 %73, %75
  br i1 %76, label %77, label %83

77:                                               ; preds = %72
  %78 = load i32, i32* %3, align 4
  %79 = sext i32 %78 to i64
  %80 = getelementptr inbounds [30000 x i32], [30000 x i32]* %6, i64 0, i64 %79
  %81 = load i32, i32* %80, align 4
  %82 = call i32 (i8*, ...) @printf(i8* getelementptr inbounds ([4 x i8], [4 x i8]* @.str.1, i64 0, i64 0), i32 %81)
  br label %89

83:                                               ; preds = %72
  %84 = load i32, i32* %3, align 4
  %85 = sext i32 %84 to i64
  %86 = getelementptr inbounds [30000 x i32], [30000 x i32]* %6, i64 0, i64 %85
  %87 = load i32, i32* %86, align 4
  %88 = call i32 (i8*, ...) @printf(i8* getelementptr inbounds ([3 x i8], [3 x i8]* @.str, i64 0, i64 0), i32 %87)
  br label %89

89:                                               ; preds = %83, %77
  br label %90

90:                                               ; preds = %89
  %91 = load i32, i32* %3, align 4
  %92 = add nsw i32 %91, 1
  store i32 %92, i32* %3, align 4
  br label %67

93:                                               ; preds = %67
  ret i32 0
}

declare dso_local i32 @__isoc99_scanf(i8*, ...) #1

declare dso_local i32 @printf(i8*, ...) #1


!llvm.module.flags = !{!0}
!llvm.ident = !{!1}

!0 = !{i32 1, !"wchar_size", i32 4}
!1 = !{!"clang version 10.0.0-4ubuntu1 "}
